target datalayout = "e-m:e-p270:32:32-p271:32:32-p272:64:64-i64:64-i128:128-f80:128-n8:16:32:64-S128"
target triple = "x86_64-pc-linux-gnu"

%struct.KeccakWidth1600_SpongeInstanceStruct = type { [200 x i8], i32, i32, i32 }

; Function Attrs: nounwind uwtable
define dso_local i32 @KeccakWidth1600_SpongeAbsorbLastFewBits(ptr noundef %0, i8 noundef zeroext %1) #0 {
  %3 = alloca i32, align 4
  %4 = alloca ptr, align 8
  %5 = alloca i8, align 1
  %6 = alloca i32, align 4
  %7 = alloca i32, align 4
  store ptr %0, ptr %4, align 8
  store i8 %1, ptr %5, align 1
  call void @llvm.lifetime.start.p0(i64 4, ptr %6) #3
  %8 = load ptr, ptr %4, align 8
  %9 = getelementptr inbounds nuw %struct.KeccakWidth1600_SpongeInstanceStruct, ptr %8, i32 0, i32 1
  %10 = load i32, ptr %9, align 8
  %11 = udiv i32 %10, 8
  store i32 %11, ptr %6, align 4
  %12 = load i8, ptr %5, align 1
  %13 = zext i8 %12 to i32
  %14 = icmp eq i32 %13, 0
  br i1 %14, label %15, label %16

15:                                               ; preds = %2
  store i32 1, ptr %3, align 4
  store i32 1, ptr %7, align 4
  br label %70

16:                                               ; preds = %2
  %17 = load ptr, ptr %4, align 8
  %18 = getelementptr inbounds nuw %struct.KeccakWidth1600_SpongeInstanceStruct, ptr %17, i32 0, i32 3
  %19 = load i32, ptr %18, align 8
  %20 = icmp ne i32 %19, 0
  br i1 %20, label %21, label %22

21:                                               ; preds = %16
  store i32 1, ptr %3, align 4
  store i32 1, ptr %7, align 4
  br label %70

22:                                               ; preds = %16
  %23 = load i8, ptr %5, align 1
  %24 = zext i8 %23 to i32
  %25 = load ptr, ptr %4, align 8
  %26 = getelementptr inbounds nuw %struct.KeccakWidth1600_SpongeInstanceStruct, ptr %25, i32 0, i32 0
  %27 = getelementptr inbounds [200 x i8], ptr %26, i64 0, i64 0
  %28 = load ptr, ptr %4, align 8
  %29 = getelementptr inbounds nuw %struct.KeccakWidth1600_SpongeInstanceStruct, ptr %28, i32 0, i32 2
  %30 = load i32, ptr %29, align 4
  %31 = zext i32 %30 to i64
  %32 = getelementptr inbounds nuw i8, ptr %27, i64 %31
  %33 = load i8, ptr %32, align 1
  %34 = zext i8 %33 to i32
  %35 = xor i32 %34, %24
  %36 = trunc i32 %35 to i8
  store i8 %36, ptr %32, align 1
  %37 = load i8, ptr %5, align 1
  %38 = zext i8 %37 to i32
  %39 = icmp sge i32 %38, 128
  br i1 %39, label %40, label %51

40:                                               ; preds = %22
  %41 = load ptr, ptr %4, align 8
  %42 = getelementptr inbounds nuw %struct.KeccakWidth1600_SpongeInstanceStruct, ptr %41, i32 0, i32 2
  %43 = load i32, ptr %42, align 4
  %44 = load i32, ptr %6, align 4
  %45 = sub i32 %44, 1
  %46 = icmp eq i32 %43, %45
  br i1 %46, label %47, label %51

47:                                               ; preds = %40
  %48 = load ptr, ptr %4, align 8
  %49 = getelementptr inbounds nuw %struct.KeccakWidth1600_SpongeInstanceStruct, ptr %48, i32 0, i32 0
  %50 = getelementptr inbounds [200 x i8], ptr %49, i64 0, i64 0
  call void @KeccakP1600_Permute_24rounds(ptr noundef %50)
  br label %51

51:                                               ; preds = %47, %40, %22
  %52 = load ptr, ptr %4, align 8
  %53 = getelementptr inbounds nuw %struct.KeccakWidth1600_SpongeInstanceStruct, ptr %52, i32 0, i32 0
  %54 = getelementptr inbounds [200 x i8], ptr %53, i64 0, i64 0
  %55 = load i32, ptr %6, align 4
  %56 = sub i32 %55, 1
  %57 = zext i32 %56 to i64
  %58 = getelementptr inbounds nuw i8, ptr %54, i64 %57
  %59 = load i8, ptr %58, align 1
  %60 = zext i8 %59 to i32
  %61 = xor i32 %60, 128
  %62 = trunc i32 %61 to i8
  store i8 %62, ptr %58, align 1
  %63 = load ptr, ptr %4, align 8
  %64 = getelementptr inbounds nuw %struct.KeccakWidth1600_SpongeInstanceStruct, ptr %63, i32 0, i32 0
  %65 = getelementptr inbounds [200 x i8], ptr %64, i64 0, i64 0
  call void @KeccakP1600_Permute_24rounds(ptr noundef %65)
  %66 = load ptr, ptr %4, align 8
  %67 = getelementptr inbounds nuw %struct.KeccakWidth1600_SpongeInstanceStruct, ptr %66, i32 0, i32 2
  store i32 0, ptr %67, align 4
  %68 = load ptr, ptr %4, align 8
  %69 = getelementptr inbounds nuw %struct.KeccakWidth1600_SpongeInstanceStruct, ptr %68, i32 0, i32 3
  store i32 1, ptr %69, align 8
  store i32 0, ptr %3, align 4
  store i32 1, ptr %7, align 4
  br label %70

70:                                               ; preds = %51, %21, %15
  call void @llvm.lifetime.end.p0(i64 4, ptr %6) #3
  %71 = load i32, ptr %3, align 4
  ret i32 %71
}

; Function Attrs: nounwind uwtable
define dso_local i32 @KeccakWidth1600_SpongeSqueeze(ptr noundef %0, ptr noundef %1, i64 noundef %2) #0 {
  %4 = alloca ptr, align 8
  %5 = alloca ptr, align 8
  %6 = alloca i64, align 8
  %7 = alloca i64, align 8
  %8 = alloca i64, align 8
  %9 = alloca i32, align 4
  %10 = alloca i32, align 4
  %11 = alloca ptr, align 8
  store ptr %0, ptr %4, align 8
  store ptr %1, ptr %5, align 8
  store i64 %2, ptr %6, align 8
  call void @llvm.lifetime.start.p0(i64 8, ptr %7) #3
  call void @llvm.lifetime.start.p0(i64 8, ptr %8) #3
  call void @llvm.lifetime.start.p0(i64 4, ptr %9) #3
  call void @llvm.lifetime.start.p0(i64 4, ptr %10) #3
  %12 = load ptr, ptr %4, align 8
  %13 = getelementptr inbounds nuw %struct.KeccakWidth1600_SpongeInstanceStruct, ptr %12, i32 0, i32 1
  %14 = load i32, ptr %13, align 8
  %15 = udiv i32 %14, 8
  store i32 %15, ptr %10, align 4
  call void @llvm.lifetime.start.p0(i64 8, ptr %11) #3
  %16 = load ptr, ptr %4, align 8
  %17 = getelementptr inbounds nuw %struct.KeccakWidth1600_SpongeInstanceStruct, ptr %16, i32 0, i32 3
  %18 = load i32, ptr %17, align 8
  %19 = icmp ne i32 %18, 0
  br i1 %19, label %23, label %20

20:                                               ; preds = %3
  %21 = load ptr, ptr %4, align 8
  %22 = call i32 @KeccakWidth1600_SpongeAbsorbLastFewBits(ptr noundef %21, i8 noundef zeroext 1)
  br label %23

23:                                               ; preds = %20, %3
  store i64 0, ptr %7, align 8
  %24 = load ptr, ptr %5, align 8
  store ptr %24, ptr %11, align 8
  br label %25

25:                                               ; preds = %125, %23
  %26 = load i64, ptr %7, align 8
  %27 = load i64, ptr %6, align 8
  %28 = icmp ult i64 %26, %27
  br i1 %28, label %29, label %126

29:                                               ; preds = %25
  %30 = load ptr, ptr %4, align 8
  %31 = getelementptr inbounds nuw %struct.KeccakWidth1600_SpongeInstanceStruct, ptr %30, i32 0, i32 2
  %32 = load i32, ptr %31, align 4
  %33 = load i32, ptr %10, align 4
  %34 = icmp eq i32 %32, %33
  br i1 %34, label %35, label %73

35:                                               ; preds = %29
  %36 = load i64, ptr %6, align 8
  %37 = load i64, ptr %7, align 8
  %38 = load i32, ptr %10, align 4
  %39 = zext i32 %38 to i64
  %40 = add i64 %37, %39
  %41 = icmp uge i64 %36, %40
  br i1 %41, label %42, label %73

42:                                               ; preds = %35
  %43 = load i64, ptr %6, align 8
  %44 = load i64, ptr %7, align 8
  %45 = sub i64 %43, %44
  store i64 %45, ptr %8, align 8
  br label %46

46:                                               ; preds = %64, %42
  %47 = load i64, ptr %8, align 8
  %48 = load i32, ptr %10, align 4
  %49 = zext i32 %48 to i64
  %50 = icmp uge i64 %47, %49
  br i1 %50, label %51, label %69

51:                                               ; preds = %46
  %52 = load ptr, ptr %4, align 8
  %53 = getelementptr inbounds nuw %struct.KeccakWidth1600_SpongeInstanceStruct, ptr %52, i32 0, i32 0
  %54 = getelementptr inbounds [200 x i8], ptr %53, i64 0, i64 0
  call void @KeccakP1600_Permute_24rounds(ptr noundef %54)
  %55 = load ptr, ptr %4, align 8
  %56 = getelementptr inbounds nuw %struct.KeccakWidth1600_SpongeInstanceStruct, ptr %55, i32 0, i32 0
  %57 = getelementptr inbounds [200 x i8], ptr %56, i64 0, i64 0
  %58 = load ptr, ptr %11, align 8
  %59 = load i32, ptr %10, align 4
  call void @KeccakP1600_ExtractBytes(ptr noundef %57, ptr noundef %58, i32 noundef 0, i32 noundef %59)
  %60 = load i32, ptr %10, align 4
  %61 = load ptr, ptr %11, align 8
  %62 = zext i32 %60 to i64
  %63 = getelementptr inbounds nuw i8, ptr %61, i64 %62
  store ptr %63, ptr %11, align 8
  br label %64

64:                                               ; preds = %51
  %65 = load i32, ptr %10, align 4
  %66 = zext i32 %65 to i64
  %67 = load i64, ptr %8, align 8
  %68 = sub i64 %67, %66
  store i64 %68, ptr %8, align 8
  br label %46, !llvm.loop !14

69:                                               ; preds = %46
  %70 = load i64, ptr %6, align 8
  %71 = load i64, ptr %8, align 8
  %72 = sub i64 %70, %71
  store i64 %72, ptr %7, align 8
  br label %125

73:                                               ; preds = %35, %29
  %74 = load ptr, ptr %4, align 8
  %75 = getelementptr inbounds nuw %struct.KeccakWidth1600_SpongeInstanceStruct, ptr %74, i32 0, i32 2
  %76 = load i32, ptr %75, align 4
  %77 = load i32, ptr %10, align 4
  %78 = icmp eq i32 %76, %77
  br i1 %78, label %79, label %85

79:                                               ; preds = %73
  %80 = load ptr, ptr %4, align 8
  %81 = getelementptr inbounds nuw %struct.KeccakWidth1600_SpongeInstanceStruct, ptr %80, i32 0, i32 0
  %82 = getelementptr inbounds [200 x i8], ptr %81, i64 0, i64 0
  call void @KeccakP1600_Permute_24rounds(ptr noundef %82)
  %83 = load ptr, ptr %4, align 8
  %84 = getelementptr inbounds nuw %struct.KeccakWidth1600_SpongeInstanceStruct, ptr %83, i32 0, i32 2
  store i32 0, ptr %84, align 4
  br label %85

85:                                               ; preds = %79, %73
  %86 = load i64, ptr %6, align 8
  %87 = load i64, ptr %7, align 8
  %88 = sub i64 %86, %87
  %89 = trunc i64 %88 to i32
  store i32 %89, ptr %9, align 4
  %90 = load i32, ptr %9, align 4
  %91 = load ptr, ptr %4, align 8
  %92 = getelementptr inbounds nuw %struct.KeccakWidth1600_SpongeInstanceStruct, ptr %91, i32 0, i32 2
  %93 = load i32, ptr %92, align 4
  %94 = add i32 %90, %93
  %95 = load i32, ptr %10, align 4
  %96 = icmp ugt i32 %94, %95
  br i1 %96, label %97, label %103

97:                                               ; preds = %85
  %98 = load i32, ptr %10, align 4
  %99 = load ptr, ptr %4, align 8
  %100 = getelementptr inbounds nuw %struct.KeccakWidth1600_SpongeInstanceStruct, ptr %99, i32 0, i32 2
  %101 = load i32, ptr %100, align 4
  %102 = sub i32 %98, %101
  store i32 %102, ptr %9, align 4
  br label %103

103:                                              ; preds = %97, %85
  %104 = load i32, ptr %9, align 4
  %105 = zext i32 %104 to i64
  %106 = load i64, ptr %7, align 8
  %107 = add i64 %106, %105
  store i64 %107, ptr %7, align 8
  %108 = load ptr, ptr %4, align 8
  %109 = getelementptr inbounds nuw %struct.KeccakWidth1600_SpongeInstanceStruct, ptr %108, i32 0, i32 0
  %110 = getelementptr inbounds [200 x i8], ptr %109, i64 0, i64 0
  %111 = load ptr, ptr %11, align 8
  %112 = load ptr, ptr %4, align 8
  %113 = getelementptr inbounds nuw %struct.KeccakWidth1600_SpongeInstanceStruct, ptr %112, i32 0, i32 2
  %114 = load i32, ptr %113, align 4
  %115 = load i32, ptr %9, align 4
  call void @KeccakP1600_ExtractBytes(ptr noundef %110, ptr noundef %111, i32 noundef %114, i32 noundef %115)
  %116 = load i32, ptr %9, align 4
  %117 = load ptr, ptr %11, align 8
  %118 = zext i32 %116 to i64
  %119 = getelementptr inbounds nuw i8, ptr %117, i64 %118
  store ptr %119, ptr %11, align 8
  %120 = load i32, ptr %9, align 4
  %121 = load ptr, ptr %4, align 8
  %122 = getelementptr inbounds nuw %struct.KeccakWidth1600_SpongeInstanceStruct, ptr %121, i32 0, i32 2
  %123 = load i32, ptr %122, align 4
  %124 = add i32 %123, %120
  store i32 %124, ptr %122, align 4
  br label %125

125:                                              ; preds = %103, %69
  br label %25, !llvm.loop !15

126:                                              ; preds = %25
  call void @llvm.lifetime.end.p0(i64 8, ptr %11) #3
  call void @llvm.lifetime.end.p0(i64 4, ptr %10) #3
  call void @llvm.lifetime.end.p0(i64 4, ptr %9) #3
  call void @llvm.lifetime.end.p0(i64 8, ptr %8) #3
  call void @llvm.lifetime.end.p0(i64 8, ptr %7) #3
  ret i32 0
}