; Function Attrs: nounwind uwtable
define dso_local noundef i32 @KeccakWidth1600_SpongeSqueeze(ptr noundef %0, ptr noundef %1, i64 noundef %2) local_unnamed_addr #0 {
  %4 = getelementptr inbounds nuw i8, ptr %0, i64 200
  %5 = load i32, ptr %4, align 8
  %6 = lshr i32 %5, 3
  %7 = getelementptr inbounds nuw i8, ptr %0, i64 208
  %8 = load i32, ptr %7, align 8
  %.not = icmp eq i32 %8, 0
  br i1 %.not, label %KeccakWidth1600_SpongeAbsorbLastFewBits.exit, label %19

KeccakWidth1600_SpongeAbsorbLastFewBits.exit:     ; preds = %3
  %9 = getelementptr inbounds nuw i8, ptr %0, i64 204
  %10 = load i32, ptr %9, align 4
  %11 = zext i32 %10 to i64
  %12 = getelementptr inbounds nuw i8, ptr %0, i64 %11
  %13 = load i8, ptr %12, align 1
  %14 = xor i8 %13, 1
  store i8 %14, ptr %12, align 1
  %.pre.i = add nsw i32 %6, -1
  %15 = zext i32 %.pre.i to i64
  %16 = getelementptr inbounds nuw i8, ptr %0, i64 %15
  %17 = load i8, ptr %16, align 1
  %18 = xor i8 %17, -128
  store i8 %18, ptr %16, align 1
  tail call void @KeccakP1600_Permute_24rounds(ptr noundef nonnull %0) #3
  store i32 0, ptr %9, align 4
  store i32 1, ptr %7, align 8
  br label %19

19:                                               ; preds = %KeccakWidth1600_SpongeAbsorbLastFewBits.exit, %3
  %.not64 = icmp eq i64 %2, 0
  br i1 %.not64, label %._crit_edge63, label %.lr.ph62

.lr.ph62:                                         ; preds = %19
  %20 = getelementptr inbounds nuw i8, ptr %0, i64 204
  %21 = zext nneg i32 %6 to i64
  br label %22

22:                                               ; preds = %.lr.ph62, %45
  %.060 = phi ptr [ %1, %.lr.ph62 ], [ %.2, %45 ]
  %.04559 = phi i64 [ 0, %.lr.ph62 ], [ %.146, %45 ]
  %23 = load i32, ptr %20, align 4
  %24 = icmp eq i32 %23, %6
  br i1 %24, label %25, label %33

25:                                               ; preds = %22
  %26 = add i64 %.04559, %21
  %.not53 = icmp ult i64 %2, %26
  br i1 %.not53, label %32, label %27

27:                                               ; preds = %25
  %28 = sub i64 %2, %.04559
  %.not5455 = icmp ult i64 %28, %21
  br i1 %.not5455, label %._crit_edge, label %.lr.ph

.lr.ph:                                           ; preds = %27, %.lr.ph
  %.157 = phi ptr [ %29, %.lr.ph ], [ %.060, %27 ]
  %.04856 = phi i64 [ %30, %.lr.ph ], [ %28, %27 ]
  tail call void @KeccakP1600_Permute_24rounds(ptr noundef %0) #3
  tail call void @KeccakP1600_ExtractBytes(ptr noundef %0, ptr noundef %.157, i32 noundef 0, i32 noundef %6) #3
  %29 = getelementptr inbounds nuw i8, ptr %.157, i64 %21
  %30 = sub nuw i64 %.04856, %21
  %.not54 = icmp ult i64 %30, %21
  br i1 %.not54, label %._crit_edge, label %.lr.ph, !llvm.loop !14

._crit_edge:                                      ; preds = %.lr.ph, %27
  %.048.lcssa = phi i64 [ %28, %27 ], [ %30, %.lr.ph ]
  %.1.lcssa = phi ptr [ %.060, %27 ], [ %29, %.lr.ph ]
  %31 = sub i64 %2, %.048.lcssa
  br label %45

32:                                               ; preds = %25
  tail call void @KeccakP1600_Permute_24rounds(ptr noundef nonnull %0) #3
  store i32 0, ptr %20, align 4
  br label %33

33:                                               ; preds = %22, %32
  %34 = phi i32 [ %23, %22 ], [ 0, %32 ]
  %35 = sub i64 %2, %.04559
  %36 = trunc i64 %35 to i32
  %37 = add i32 %34, %36
  %38 = icmp ugt i32 %37, %6
  %39 = sub i32 %6, %34
  %spec.select = select i1 %38, i32 %39, i32 %36
  %40 = zext i32 %spec.select to i64
  %41 = add i64 %.04559, %40
  tail call void @KeccakP1600_ExtractBytes(ptr noundef nonnull %0, ptr noundef %.060, i32 noundef %34, i32 noundef %spec.select) #3
  %42 = getelementptr inbounds nuw i8, ptr %.060, i64 %40
  %43 = load i32, ptr %20, align 4
  %44 = add i32 %spec.select, %43
  store i32 %44, ptr %20, align 4
  br label %45

45:                                               ; preds = %33, %._crit_edge
  %.146 = phi i64 [ %31, %._crit_edge ], [ %41, %33 ]
  %.2 = phi ptr [ %.1.lcssa, %._crit_edge ], [ %42, %33 ]
  %46 = icmp ult i64 %.146, %2
  br i1 %46, label %22, label %._crit_edge63, !llvm.loop !15

._crit_edge63:                                    ; preds = %45, %19
  ret i32 0
}